target datalayout = "e-m:e-p270:32:32-p271:32:32-p272:64:64-i64:64-i128:128-f80:128-n8:16:32:64-S128"
target triple = "x86_64-pc-linux-gnu"

%struct.expert_field = type { i32, i32 }

@hf_ldp_tlv_ft_sess_flags = internal global i32 0, align 4
@hf_ldp_tlv_ft_sess_flag_r = internal global i32 0, align 4
@hf_ldp_tlv_ft_sess_flag_res = internal global i32 0, align 4
@hf_ldp_tlv_ft_sess_flag_s = internal global i32 0, align 4
@hf_ldp_tlv_ft_sess_flag_a = internal global i32 0, align 4
@hf_ldp_tlv_ft_sess_flag_c = internal global i32 0, align 4
@hf_ldp_tlv_ft_sess_flag_l = internal global i32 0, align 4
@hf_ldp_tlv_ft_sess_res = internal global i32 0, align 4
@hf_ldp_tlv_ft_sess_reconn_to = internal global i32 0, align 4
@hf_ldp_tlv_ft_sess_recovery_time = internal global i32 0, align 4
@ett_ldp_tlv_val = internal global i32 0, align 4
@ett_ldp_tlv_ft_flags = internal global i32 0, align 4
@ei_ldp_tlv_fec_len = internal global %struct.expert_field zeroinitializer, align 4
@.str.1061 = private unnamed_addr constant [60 x i8] c"Error processing FT Session TLV: length is %d, should be 12\00", align 1
@.str.1062 = private unnamed_addr constant [22 x i8] c"FT Session Parameters\00", align 1
@.str.1063 = private unnamed_addr constant [8 x i8] c" (%s%s)\00", align 1
@.str.1064 = private unnamed_addr constant [4 x i8] c"R, \00", align 1
@.str.1065 = private unnamed_addr constant [1 x i8] zeroinitializer, align 1
@.str.1066 = private unnamed_addr constant [8 x i8] c"Invalid\00", align 1

; Function Attrs: null_pointer_is_valid sspstrong uwtable
define internal void @dissect_tlv_ft_session(ptr noundef %0, ptr noundef %1, i32 noundef %2, ptr noundef %3, i32 noundef %4) #0 {
  %6 = alloca ptr, align 8
  %7 = alloca ptr, align 8
  %8 = alloca i32, align 4
  %9 = alloca ptr, align 8
  %10 = alloca i32, align 4
  %11 = alloca ptr, align 8
  %12 = alloca ptr, align 8
  %13 = alloca ptr, align 8
  %14 = alloca i16, align 2
  %15 = alloca i32, align 4
  store ptr %0, ptr %6, align 8
  store ptr %1, ptr %7, align 8
  store i32 %2, ptr %8, align 4
  store ptr %3, ptr %9, align 8
  store i32 %4, ptr %10, align 4
  call void @llvm.lifetime.start.p0(i64 8, ptr %11) #7
  call void @llvm.lifetime.start.p0(i64 8, ptr %12) #7
  call void @llvm.lifetime.start.p0(i64 8, ptr %13) #7
  call void @llvm.lifetime.start.p0(i64 2, ptr %14) #7
  %16 = load i32, ptr %10, align 4
  %17 = icmp ne i32 %16, 12
  br i1 %17, label %18, label %26

18:                                               ; preds = %5
  %19 = load ptr, ptr %9, align 8
  %20 = load ptr, ptr %7, align 8
  %21 = load ptr, ptr %6, align 8
  %22 = load i32, ptr %8, align 4
  %23 = load i32, ptr %10, align 4
  %24 = load i32, ptr %10, align 4
  %25 = call ptr (ptr, ptr, ptr, ptr, i32, i32, ptr, ...) @proto_tree_add_expert_format(ptr noundef %19, ptr noundef %20, ptr noundef @ei_ldp_tlv_fec_len, ptr noundef %21, i32 noundef %22, i32 noundef %23, ptr noundef @.str.1061, i32 noundef %24)
  store i32 1, ptr %15, align 4
  br label %102

26:                                               ; preds = %5
  %27 = load ptr, ptr %9, align 8
  %28 = load ptr, ptr %6, align 8
  %29 = load i32, ptr %8, align 4
  %30 = load i32, ptr %10, align 4
  %31 = load i32, ptr @ett_ldp_tlv_val, align 4
  %32 = call ptr @proto_tree_add_subtree(ptr noundef %27, ptr noundef %28, i32 noundef %29, i32 noundef %30, i32 noundef %31, ptr noundef null, ptr noundef @.str.1062)
  store ptr %32, ptr %12, align 8
  %33 = load ptr, ptr %12, align 8
  %34 = load i32, ptr @hf_ldp_tlv_ft_sess_flags, align 4
  %35 = load ptr, ptr %6, align 8
  %36 = load i32, ptr %8, align 4
  %37 = call ptr @proto_tree_add_item(ptr noundef %33, i32 noundef %34, ptr noundef %35, i32 noundef %36, i32 noundef 2, i32 noundef 0)
  store ptr %37, ptr %11, align 8
  %38 = load ptr, ptr %11, align 8
  %39 = load i32, ptr @ett_ldp_tlv_ft_flags, align 4
  %40 = call ptr @proto_item_add_subtree(ptr noundef %38, i32 noundef %39)
  store ptr %40, ptr %13, align 8
  %41 = load ptr, ptr %6, align 8
  %42 = load i32, ptr %8, align 4
  %43 = call zeroext i16 @tvb_get_ntohs(ptr noundef %41, i32 noundef %42)
  store i16 %43, ptr %14, align 2
  %44 = load ptr, ptr %11, align 8
  %45 = load i16, ptr %14, align 2
  %46 = zext i16 %45 to i32
  %47 = and i32 %46, 32768
  %48 = icmp ne i32 %47, 0
  %49 = select i1 %48, ptr @.str.1064, ptr @.str.1065
  %50 = load i16, ptr %14, align 2
  %51 = zext i16 %50 to i32
  %52 = and i32 %51, 15
  %53 = call ptr @val_to_str_const(i32 noundef %52, ptr noundef @tlv_ft_flags, ptr noundef @.str.1066)
  call void (ptr, ptr, ...) @proto_item_append_text(ptr noundef %44, ptr noundef @.str.1063, ptr noundef %49, ptr noundef %53)
  %54 = load ptr, ptr %13, align 8
  %55 = load i32, ptr @hf_ldp_tlv_ft_sess_flag_r, align 4
  %56 = load ptr, ptr %6, align 8
  %57 = load i32, ptr %8, align 4
  %58 = call ptr @proto_tree_add_item(ptr noundef %54, i32 noundef %55, ptr noundef %56, i32 noundef %57, i32 noundef 2, i32 noundef 0)
  %59 = load ptr, ptr %13, align 8
  %60 = load i32, ptr @hf_ldp_tlv_ft_sess_flag_res, align 4
  %61 = load ptr, ptr %6, align 8
  %62 = load i32, ptr %8, align 4
  %63 = call ptr @proto_tree_add_item(ptr noundef %59, i32 noundef %60, ptr noundef %61, i32 noundef %62, i32 noundef 2, i32 noundef 0)
  %64 = load ptr, ptr %13, align 8
  %65 = load i32, ptr @hf_ldp_tlv_ft_sess_flag_s, align 4
  %66 = load ptr, ptr %6, align 8
  %67 = load i32, ptr %8, align 4
  %68 = call ptr @proto_tree_add_item(ptr noundef %64, i32 noundef %65, ptr noundef %66, i32 noundef %67, i32 noundef 2, i32 noundef 0)
  %69 = load ptr, ptr %13, align 8
  %70 = load i32, ptr @hf_ldp_tlv_ft_sess_flag_a, align 4
  %71 = load ptr, ptr %6, align 8
  %72 = load i32, ptr %8, align 4
  %73 = call ptr @proto_tree_add_item(ptr noundef %69, i32 noundef %70, ptr noundef %71, i32 noundef %72, i32 noundef 2, i32 noundef 0)
  %74 = load ptr, ptr %13, align 8
  %75 = load i32, ptr @hf_ldp_tlv_ft_sess_flag_c, align 4
  %76 = load ptr, ptr %6, align 8
  %77 = load i32, ptr %8, align 4
  %78 = call ptr @proto_tree_add_item(ptr noundef %74, i32 noundef %75, ptr noundef %76, i32 noundef %77, i32 noundef 2, i32 noundef 0)
  %79 = load ptr, ptr %13, align 8
  %80 = load i32, ptr @hf_ldp_tlv_ft_sess_flag_l, align 4
  %81 = load ptr, ptr %6, align 8
  %82 = load i32, ptr %8, align 4
  %83 = call ptr @proto_tree_add_item(ptr noundef %79, i32 noundef %80, ptr noundef %81, i32 noundef %82, i32 noundef 2, i32 noundef 0)
  %84 = load ptr, ptr %12, align 8
  %85 = load i32, ptr @hf_ldp_tlv_ft_sess_res, align 4
  %86 = load ptr, ptr %6, align 8
  %87 = load i32, ptr %8, align 4
  %88 = add i32 %87, 2
  %89 = call ptr @proto_tree_add_item(ptr noundef %84, i32 noundef %85, ptr noundef %86, i32 noundef %88, i32 noundef 2, i32 noundef 0)
  %90 = load ptr, ptr %12, align 8
  %91 = load i32, ptr @hf_ldp_tlv_ft_sess_reconn_to, align 4
  %92 = load ptr, ptr %6, align 8
  %93 = load i32, ptr %8, align 4
  %94 = add i32 %93, 4
  %95 = call ptr @proto_tree_add_item(ptr noundef %90, i32 noundef %91, ptr noundef %92, i32 noundef %94, i32 noundef 4, i32 noundef 0)
  %96 = load ptr, ptr %12, align 8
  %97 = load i32, ptr @hf_ldp_tlv_ft_sess_recovery_time, align 4
  %98 = load ptr, ptr %6, align 8
  %99 = load i32, ptr %8, align 4
  %100 = add i32 %99, 8
  %101 = call ptr @proto_tree_add_item(ptr noundef %96, i32 noundef %97, ptr noundef %98, i32 noundef %100, i32 noundef 4, i32 noundef 0)
  store i32 0, ptr %15, align 4
  br label %102

102:                                              ; preds = %26, %18
  call void @llvm.lifetime.end.p0(i64 2, ptr %14) #7
  call void @llvm.lifetime.end.p0(i64 8, ptr %13) #7
  call void @llvm.lifetime.end.p0(i64 8, ptr %12) #7
  call void @llvm.lifetime.end.p0(i64 8, ptr %11) #7
  %103 = load i32, ptr %15, align 4
  switch i32 %103, label %105 [
    i32 0, label %104
    i32 1, label %104
  ]

104:                                              ; preds = %102, %102
  ret void

105:                                              ; preds = %102
  unreachable
}