; Function Attrs: null_pointer_is_valid sspstrong uwtable
define internal fastcc void @dissect_tlv_ft_session(ptr noundef %0, ptr noundef %1, i32 noundef %2, ptr noundef %3, i32 noundef range(i32 0, 2147483644) %4) unnamed_addr #0 {
  %.not = icmp eq i32 %4, 12
  br i1 %.not, label %8, label %6

6:                                                ; preds = %5
  %7 = tail call ptr (ptr, ptr, ptr, ptr, i32, i32, ptr, ...) @proto_tree_add_expert_format(ptr noundef %3, ptr noundef %1, ptr noundef nonnull @ei_ldp_tlv_fec_len, ptr noundef %0, i32 noundef %2, i32 noundef %4, ptr noundef nonnull @.str.1061, i32 noundef %4)
  br label %41

8:                                                ; preds = %5
  %9 = load i32, ptr @ett_ldp_tlv_val, align 4
  %10 = tail call ptr @proto_tree_add_subtree(ptr noundef %3, ptr noundef %0, i32 noundef %2, i32 noundef 12, i32 noundef %9, ptr noundef null, ptr noundef nonnull @.str.1062)
  %11 = load i32, ptr @hf_ldp_tlv_ft_sess_flags, align 4
  %12 = tail call ptr @proto_tree_add_item(ptr noundef %10, i32 noundef %11, ptr noundef %0, i32 noundef %2, i32 noundef 2, i32 noundef 0)
  %13 = load i32, ptr @ett_ldp_tlv_ft_flags, align 4
  %14 = tail call ptr @proto_item_add_subtree(ptr noundef %12, i32 noundef %13)
  %15 = tail call zeroext i16 @tvb_get_ntohs(ptr noundef %0, i32 noundef %2)
  %.not46 = icmp sgt i16 %15, -1
  %16 = select i1 %.not46, ptr @.str.1065, ptr @.str.1064
  %17 = and i16 %15, 15
  %18 = zext nneg i16 %17 to i32
  %19 = tail call ptr @val_to_str_const(i32 noundef %18, ptr noundef nonnull @tlv_ft_flags, ptr noundef nonnull @.str.1066)
  tail call void (ptr, ptr, ...) @proto_item_append_text(ptr noundef %12, ptr noundef nonnull @.str.1063, ptr noundef nonnull %16, ptr noundef %19)
  %20 = load i32, ptr @hf_ldp_tlv_ft_sess_flag_r, align 4
  %21 = tail call ptr @proto_tree_add_item(ptr noundef %14, i32 noundef %20, ptr noundef %0, i32 noundef %2, i32 noundef 2, i32 noundef 0)
  %22 = load i32, ptr @hf_ldp_tlv_ft_sess_flag_res, align 4
  %23 = tail call ptr @proto_tree_add_item(ptr noundef %14, i32 noundef %22, ptr noundef %0, i32 noundef %2, i32 noundef 2, i32 noundef 0)
  %24 = load i32, ptr @hf_ldp_tlv_ft_sess_flag_s, align 4
  %25 = tail call ptr @proto_tree_add_item(ptr noundef %14, i32 noundef %24, ptr noundef %0, i32 noundef %2, i32 noundef 2, i32 noundef 0)
  %26 = load i32, ptr @hf_ldp_tlv_ft_sess_flag_a, align 4
  %27 = tail call ptr @proto_tree_add_item(ptr noundef %14, i32 noundef %26, ptr noundef %0, i32 noundef %2, i32 noundef 2, i32 noundef 0)
  %28 = load i32, ptr @hf_ldp_tlv_ft_sess_flag_c, align 4
  %29 = tail call ptr @proto_tree_add_item(ptr noundef %14, i32 noundef %28, ptr noundef %0, i32 noundef %2, i32 noundef 2, i32 noundef 0)
  %30 = load i32, ptr @hf_ldp_tlv_ft_sess_flag_l, align 4
  %31 = tail call ptr @proto_tree_add_item(ptr noundef %14, i32 noundef %30, ptr noundef %0, i32 noundef %2, i32 noundef 2, i32 noundef 0)
  %32 = load i32, ptr @hf_ldp_tlv_ft_sess_res, align 4
  %33 = add i32 %2, 2
  %34 = tail call ptr @proto_tree_add_item(ptr noundef %10, i32 noundef %32, ptr noundef %0, i32 noundef %33, i32 noundef 2, i32 noundef 0)
  %35 = load i32, ptr @hf_ldp_tlv_ft_sess_reconn_to, align 4
  %36 = add i32 %2, 4
  %37 = tail call ptr @proto_tree_add_item(ptr noundef %10, i32 noundef %35, ptr noundef %0, i32 noundef %36, i32 noundef 4, i32 noundef 0)
  %38 = load i32, ptr @hf_ldp_tlv_ft_sess_recovery_time, align 4
  %39 = add i32 %2, 8
  %40 = tail call ptr @proto_tree_add_item(ptr noundef %10, i32 noundef %38, ptr noundef %0, i32 noundef %39, i32 noundef 4, i32 noundef 0)
  br label %41

41:                                               ; preds = %8, %6
  ret void
}